target datalayout = "e-m:e-p270:32:32-p271:32:32-p272:64:64-i64:64-i128:128-f80:128-n8:16:32:64-S128"
target triple = "x86_64-unknown-linux-gnu"

; Function Attrs: nounwind uwtable
define internal i32 @read_ident(ptr noundef %start) #4 {
entry:
  %retval = alloca i32, align 4
  %start.addr = alloca ptr, align 8
  %p = alloca ptr, align 8
  %c = alloca i32, align 4
  %q = alloca ptr, align 8
  store ptr %start, ptr %start.addr, align 8
  %0 = load ptr, ptr %start.addr, align 8
  store ptr %0, ptr %p, align 8
  %1 = load ptr, ptr %p, align 8
  %call = call i32 @decode_utf8(ptr noundef %p, ptr noundef %1)
  store i32 %call, ptr %c, align 4
  %2 = load i32, ptr %c, align 4
  %call1 = call zeroext i1 @is_ident1(i32 noundef %2)
  br i1 %call1, label %if.end, label %if.then

if.then:                                          ; preds = %entry
  store i32 0, ptr %retval, align 4
  br label %return

if.end:                                           ; preds = %entry
  br label %for.cond

for.cond:                                         ; preds = %if.end5, %if.end
  %3 = load ptr, ptr %p, align 8
  %call2 = call i32 @decode_utf8(ptr noundef %q, ptr noundef %3)
  store i32 %call2, ptr %c, align 4
  %4 = load i32, ptr %c, align 4
  %call3 = call zeroext i1 @is_ident2(i32 noundef %4)
  br i1 %call3, label %if.end5, label %if.then4

if.then4:                                         ; preds = %for.cond
  %5 = load ptr, ptr %p, align 8
  %6 = load ptr, ptr %start.addr, align 8
  %sub.ptr.lhs.cast = ptrtoint ptr %5 to i64
  %sub.ptr.rhs.cast = ptrtoint ptr %6 to i64
  %sub.ptr.sub = sub i64 %sub.ptr.lhs.cast, %sub.ptr.rhs.cast
  %conv = trunc i64 %sub.ptr.sub to i32
  store i32 %conv, ptr %retval, align 4
  br label %return

if.end5:                                          ; preds = %for.cond
  %7 = load ptr, ptr %q, align 8
  store ptr %7, ptr %p, align 8
  br label %for.cond

return:                                           ; preds = %if.then4, %if.then
  %8 = load i32, ptr %retval, align 4
  ret i32 %8
}