; Function Attrs: nounwind uwtable
define internal fastcc i32 @read_ident(ptr noundef %start) unnamed_addr #4 {
entry:
  %p = alloca ptr, align 8
  %q = alloca ptr, align 8
  store ptr %start, ptr %p, align 8
  %call = call i32 @decode_utf8(ptr noundef nonnull %p, ptr noundef %start) #25
  %call1 = call zeroext i1 @is_ident1(i32 noundef %call) #25
  br i1 %call1, label %for.cond.preheader, label %return

for.cond.preheader:                               ; preds = %entry
  %0 = load ptr, ptr %p, align 8
  %call23 = call i32 @decode_utf8(ptr noundef nonnull %q, ptr noundef %0) #25
  %call34 = call zeroext i1 @is_ident2(i32 noundef %call23) #25
  br i1 %call34, label %if.end5, label %if.then4

if.then4:                                         ; preds = %if.end5, %for.cond.preheader
  %1 = load ptr, ptr %p, align 8
  %sub.ptr.lhs.cast = ptrtoint ptr %1 to i64
  %sub.ptr.rhs.cast = ptrtoint ptr %start to i64
  %sub.ptr.sub = sub i64 %sub.ptr.lhs.cast, %sub.ptr.rhs.cast
  %conv = trunc i64 %sub.ptr.sub to i32
  br label %return

if.end5:                                          ; preds = %for.cond.preheader, %if.end5
  %2 = load ptr, ptr %q, align 8
  store ptr %2, ptr %p, align 8
  %call2 = call i32 @decode_utf8(ptr noundef nonnull %q, ptr noundef %2) #25
  %call3 = call zeroext i1 @is_ident2(i32 noundef %call2) #25
  br i1 %call3, label %if.end5, label %if.then4

return:                                           ; preds = %entry, %if.then4
  %retval.0 = phi i32 [ %conv, %if.then4 ], [ 0, %entry ]
  ret i32 %retval.0
}